
bomb:     file format elf64-x86-64


Disassembly of section .init:

0000000000000ef8 <_init>:
 ef8:	48 83 ec 08          	sub    $0x8,%rsp
 efc:	48 8b 05 dd 30 20 00 	mov    0x2030dd(%rip),%rax        # 203fe0 <__gmon_start__>
 f03:	48 85 c0             	test   %rax,%rax
 f06:	74 02                	je     f0a <_init+0x12>
 f08:	ff d0                	callq  *%rax
 f0a:	48 83 c4 08          	add    $0x8,%rsp
 f0e:	c3                   	retq   

Disassembly of section .plt:

0000000000000f10 <.plt>:
     f10:	ff 35 f2 30 20 00    	pushq  0x2030f2(%rip)        # 204008 <_GLOBAL_OFFSET_TABLE_+0x8>
     f16:	ff 25 f4 30 20 00    	jmpq   *0x2030f4(%rip)        # 204010 <_GLOBAL_OFFSET_TABLE_+0x10>
     f1c:	0f 1f 40 00          	nopl   0x0(%rax)

0000000000000f20 <getenv@plt>:
     f20:	ff 25 f2 30 20 00    	jmpq   *0x2030f2(%rip)        # 204018 <getenv@GLIBC_2.2.5>
     f26:	68 00 00 00 00       	pushq  $0x0
     f2b:	e9 e0 ff ff ff       	jmpq   f10 <.plt>

0000000000000f30 <__errno_location@plt>:
     f30:	ff 25 ea 30 20 00    	jmpq   *0x2030ea(%rip)        # 204020 <__errno_location@GLIBC_2.2.5>
     f36:	68 01 00 00 00       	pushq  $0x1
     f3b:	e9 d0 ff ff ff       	jmpq   f10 <.plt>

0000000000000f40 <strcpy@plt>:
     f40:	ff 25 e2 30 20 00    	jmpq   *0x2030e2(%rip)        # 204028 <strcpy@GLIBC_2.2.5>
     f46:	68 02 00 00 00       	pushq  $0x2
     f4b:	e9 c0 ff ff ff       	jmpq   f10 <.plt>

0000000000000f50 <puts@plt>:
     f50:	ff 25 da 30 20 00    	jmpq   *0x2030da(%rip)        # 204030 <puts@GLIBC_2.2.5>
     f56:	68 03 00 00 00       	pushq  $0x3
     f5b:	e9 b0 ff ff ff       	jmpq   f10 <.plt>

0000000000000f60 <write@plt>:
     f60:	ff 25 d2 30 20 00    	jmpq   *0x2030d2(%rip)        # 204038 <write@GLIBC_2.2.5>
     f66:	68 04 00 00 00       	pushq  $0x4
     f6b:	e9 a0 ff ff ff       	jmpq   f10 <.plt>

0000000000000f70 <fclose@plt>:
     f70:	ff 25 ca 30 20 00    	jmpq   *0x2030ca(%rip)        # 204040 <fclose@GLIBC_2.2.5>
     f76:	68 05 00 00 00       	pushq  $0x5
     f7b:	e9 90 ff ff ff       	jmpq   f10 <.plt>

0000000000000f80 <system@plt>:
     f80:	ff 25 c2 30 20 00    	jmpq   *0x2030c2(%rip)        # 204048 <system@GLIBC_2.2.5>
     f86:	68 06 00 00 00       	pushq  $0x6
     f8b:	e9 80 ff ff ff       	jmpq   f10 <.plt>

0000000000000f90 <printf@plt>:
     f90:	ff 25 ba 30 20 00    	jmpq   *0x2030ba(%rip)        # 204050 <printf@GLIBC_2.2.5>
     f96:	68 07 00 00 00       	pushq  $0x7
     f9b:	e9 70 ff ff ff       	jmpq   f10 <.plt>

0000000000000fa0 <rewind@plt>:
     fa0:	ff 25 b2 30 20 00    	jmpq   *0x2030b2(%rip)        # 204058 <rewind@GLIBC_2.2.5>
     fa6:	68 08 00 00 00       	pushq  $0x8
     fab:	e9 60 ff ff ff       	jmpq   f10 <.plt>

0000000000000fb0 <dup@plt>:
     fb0:	ff 25 aa 30 20 00    	jmpq   *0x2030aa(%rip)        # 204060 <dup@GLIBC_2.2.5>
     fb6:	68 09 00 00 00       	pushq  $0x9
     fbb:	e9 50 ff ff ff       	jmpq   f10 <.plt>

0000000000000fc0 <close@plt>:
     fc0:	ff 25 a2 30 20 00    	jmpq   *0x2030a2(%rip)        # 204068 <close@GLIBC_2.2.5>
     fc6:	68 0a 00 00 00       	pushq  $0xa
     fcb:	e9 40 ff ff ff       	jmpq   f10 <.plt>

0000000000000fd0 <fputc@plt>:
     fd0:	ff 25 9a 30 20 00    	jmpq   *0x20309a(%rip)        # 204070 <fputc@GLIBC_2.2.5>
     fd6:	68 0b 00 00 00       	pushq  $0xb
     fdb:	e9 30 ff ff ff       	jmpq   f10 <.plt>

0000000000000fe0 <fgets@plt>:
     fe0:	ff 25 92 30 20 00    	jmpq   *0x203092(%rip)        # 204078 <fgets@GLIBC_2.2.5>
     fe6:	68 0c 00 00 00       	pushq  $0xc
     feb:	e9 20 ff ff ff       	jmpq   f10 <.plt>

0000000000000ff0 <tmpfile@plt>:
     ff0:	ff 25 8a 30 20 00    	jmpq   *0x20308a(%rip)        # 204080 <tmpfile@GLIBC_2.2.5>
     ff6:	68 0d 00 00 00       	pushq  $0xd
     ffb:	e9 10 ff ff ff       	jmpq   f10 <.plt>

0000000000001000 <signal@plt>:
    1000:	ff 25 82 30 20 00    	jmpq   *0x203082(%rip)        # 204088 <signal@GLIBC_2.2.5>
    1006:	68 0e 00 00 00       	pushq  $0xe
    100b:	e9 00 ff ff ff       	jmpq   f10 <.plt>

0000000000001010 <gethostbyname@plt>:
    1010:	ff 25 7a 30 20 00    	jmpq   *0x20307a(%rip)        # 204090 <gethostbyname@GLIBC_2.2.5>
    1016:	68 0f 00 00 00       	pushq  $0xf
    101b:	e9 f0 fe ff ff       	jmpq   f10 <.plt>

0000000000001020 <fprintf@plt>:
    1020:	ff 25 72 30 20 00    	jmpq   *0x203072(%rip)        # 204098 <fprintf@GLIBC_2.2.5>
    1026:	68 10 00 00 00       	pushq  $0x10
    102b:	e9 e0 fe ff ff       	jmpq   f10 <.plt>

0000000000001030 <strtol@plt>:
    1030:	ff 25 6a 30 20 00    	jmpq   *0x20306a(%rip)        # 2040a0 <strtol@GLIBC_2.2.5>
    1036:	68 11 00 00 00       	pushq  $0x11
    103b:	e9 d0 fe ff ff       	jmpq   f10 <.plt>

0000000000001040 <inet_pton@plt>:
    1040:	ff 25 62 30 20 00    	jmpq   *0x203062(%rip)        # 2040a8 <inet_pton@GLIBC_2.2.5>
    1046:	68 12 00 00 00       	pushq  $0x12
    104b:	e9 c0 fe ff ff       	jmpq   f10 <.plt>

0000000000001050 <fflush@plt>:
    1050:	ff 25 5a 30 20 00    	jmpq   *0x20305a(%rip)        # 2040b0 <fflush@GLIBC_2.2.5>
    1056:	68 13 00 00 00       	pushq  $0x13
    105b:	e9 b0 fe ff ff       	jmpq   f10 <.plt>

0000000000001060 <__isoc99_sscanf@plt>:
    1060:	ff 25 52 30 20 00    	jmpq   *0x203052(%rip)        # 2040b8 <__isoc99_sscanf@GLIBC_2.7>
    1066:	68 14 00 00 00       	pushq  $0x14
    106b:	e9 a0 fe ff ff       	jmpq   f10 <.plt>

0000000000001070 <bcopy@plt>:
    1070:	ff 25 4a 30 20 00    	jmpq   *0x20304a(%rip)        # 2040c0 <bcopy@GLIBC_2.2.5>
    1076:	68 15 00 00 00       	pushq  $0x15
    107b:	e9 90 fe ff ff       	jmpq   f10 <.plt>

0000000000001080 <cuserid@plt>:
    1080:	ff 25 42 30 20 00    	jmpq   *0x203042(%rip)        # 2040c8 <cuserid@GLIBC_2.2.5>
    1086:	68 16 00 00 00       	pushq  $0x16
    108b:	e9 80 fe ff ff       	jmpq   f10 <.plt>

0000000000001090 <fopen@plt>:
    1090:	ff 25 3a 30 20 00    	jmpq   *0x20303a(%rip)        # 2040d0 <fopen@GLIBC_2.2.5>
    1096:	68 17 00 00 00       	pushq  $0x17
    109b:	e9 70 fe ff ff       	jmpq   f10 <.plt>

00000000000010a0 <strcat@plt>:
    10a0:	ff 25 32 30 20 00    	jmpq   *0x203032(%rip)        # 2040d8 <strcat@GLIBC_2.2.5>
    10a6:	68 18 00 00 00       	pushq  $0x18
    10ab:	e9 60 fe ff ff       	jmpq   f10 <.plt>

00000000000010b0 <sprintf@plt>:
    10b0:	ff 25 2a 30 20 00    	jmpq   *0x20302a(%rip)        # 2040e0 <sprintf@GLIBC_2.2.5>
    10b6:	68 19 00 00 00       	pushq  $0x19
    10bb:	e9 50 fe ff ff       	jmpq   f10 <.plt>

00000000000010c0 <exit@plt>:
    10c0:	ff 25 22 30 20 00    	jmpq   *0x203022(%rip)        # 2040e8 <exit@GLIBC_2.2.5>
    10c6:	68 1a 00 00 00       	pushq  $0x1a
    10cb:	e9 40 fe ff ff       	jmpq   f10 <.plt>

00000000000010d0 <connect@plt>:
    10d0:	ff 25 1a 30 20 00    	jmpq   *0x20301a(%rip)        # 2040f0 <connect@GLIBC_2.2.5>
    10d6:	68 1b 00 00 00       	pushq  $0x1b
    10db:	e9 30 fe ff ff       	jmpq   f10 <.plt>

00000000000010e0 <fwrite@plt>:
    10e0:	ff 25 12 30 20 00    	jmpq   *0x203012(%rip)        # 2040f8 <fwrite@GLIBC_2.2.5>
    10e6:	68 1c 00 00 00       	pushq  $0x1c
    10eb:	e9 20 fe ff ff       	jmpq   f10 <.plt>

00000000000010f0 <sleep@plt>:
    10f0:	ff 25 0a 30 20 00    	jmpq   *0x20300a(%rip)        # 204100 <sleep@GLIBC_2.2.5>
    10f6:	68 1d 00 00 00       	pushq  $0x1d
    10fb:	e9 10 fe ff ff       	jmpq   f10 <.plt>

0000000000001100 <__ctype_b_loc@plt>:
    1100:	ff 25 02 30 20 00    	jmpq   *0x203002(%rip)        # 204108 <__ctype_b_loc@GLIBC_2.3>
    1106:	68 1e 00 00 00       	pushq  $0x1e
    110b:	e9 00 fe ff ff       	jmpq   f10 <.plt>

0000000000001110 <socket@plt>:
    1110:	ff 25 fa 2f 20 00    	jmpq   *0x202ffa(%rip)        # 204110 <socket@GLIBC_2.2.5>
    1116:	68 1f 00 00 00       	pushq  $0x1f
    111b:	e9 f0 fd ff ff       	jmpq   f10 <.plt>

Disassembly of section .plt.got:

0000000000001120 <__cxa_finalize@plt>:
    1120:	ff 25 d2 2e 20 00    	jmpq   *0x202ed2(%rip)        # 203ff8 <__cxa_finalize@GLIBC_2.2.5>
    1126:	66 90                	xchg   %ax,%ax

Disassembly of section .text:

0000000000001130 <_start>:
    1130:	31 ed                	xor    %ebp,%ebp
    1132:	49 89 d1             	mov    %rdx,%r9
    1135:	5e                   	pop    %rsi
    1136:	48 89 e2             	mov    %rsp,%rdx
    1139:	48 83 e4 f0          	and    $0xfffffffffffffff0,%rsp
    113d:	50                   	push   %rax
    113e:	54                   	push   %rsp
    113f:	4c 8d 05 7a 11 00 00 	lea    0x117a(%rip),%r8        # 22c0 <__libc_csu_fini>
    1146:	48 8d 0d 03 11 00 00 	lea    0x1103(%rip),%rcx        # 2250 <__libc_csu_init>
    114d:	48 8d 3d 0c 01 00 00 	lea    0x10c(%rip),%rdi        # 1260 <main>
    1154:	ff 15 7e 2e 20 00    	callq  *0x202e7e(%rip)        # 203fd8 <__libc_start_main@GLIBC_2.2.5>
    115a:	f4                   	hlt    
    115b:	0f 1f 44 00 00       	nopl   0x0(%rax,%rax,1)

0000000000001160 <deregister_tm_clones>:
    1160:	48 8d 3d 79 36 20 00 	lea    0x203679(%rip),%rdi        # 2047e0 <stdout@@GLIBC_2.2.5>
    1167:	48 8d 05 79 36 20 00 	lea    0x203679(%rip),%rax        # 2047e7 <__TMC_END__+0x7>
    116e:	55                   	push   %rbp
    116f:	48 29 f8             	sub    %rdi,%rax
    1172:	48 89 e5             	mov    %rsp,%rbp
    1175:	48 83 f8 0e          	cmp    $0xe,%rax
    1179:	76 15                	jbe    1190 <deregister_tm_clones+0x30>
    117b:	48 8b 05 4e 2e 20 00 	mov    0x202e4e(%rip),%rax        # 203fd0 <_ITM_deregisterTMCloneTable>
    1182:	48 85 c0             	test   %rax,%rax
    1185:	74 09                	je     1190 <deregister_tm_clones+0x30>
    1187:	5d                   	pop    %rbp
    1188:	ff e0                	jmpq   *%rax
    118a:	66 0f 1f 44 00 00    	nopw   0x0(%rax,%rax,1)
    1190:	5d                   	pop    %rbp
    1191:	c3                   	retq   
    1192:	0f 1f 40 00          	nopl   0x0(%rax)
    1196:	66 2e 0f 1f 84 00 00 	nopw   %cs:0x0(%rax,%rax,1)
    119d:	00 00 00 

00000000000011a0 <register_tm_clones>:
    11a0:	48 8d 3d 39 36 20 00 	lea    0x203639(%rip),%rdi        # 2047e0 <stdout@@GLIBC_2.2.5>
    11a7:	48 8d 35 32 36 20 00 	lea    0x203632(%rip),%rsi        # 2047e0 <stdout@@GLIBC_2.2.5>
    11ae:	55                   	push   %rbp
    11af:	48 29 fe             	sub    %rdi,%rsi
    11b2:	48 89 e5             	mov    %rsp,%rbp
    11b5:	48 c1 fe 03          	sar    $0x3,%rsi
    11b9:	48 89 f0             	mov    %rsi,%rax
    11bc:	48 c1 e8 3f          	shr    $0x3f,%rax
    11c0:	48 01 c6             	add    %rax,%rsi
    11c3:	48 d1 fe             	sar    %rsi
    11c6:	74 18                	je     11e0 <register_tm_clones+0x40>
    11c8:	48 8b 05 21 2e 20 00 	mov    0x202e21(%rip),%rax        # 203ff0 <_ITM_registerTMCloneTable>
    11cf:	48 85 c0             	test   %rax,%rax
    11d2:	74 0c                	je     11e0 <register_tm_clones+0x40>
    11d4:	5d                   	pop    %rbp
    11d5:	ff e0                	jmpq   *%rax
    11d7:	66 0f 1f 84 00 00 00 	nopw   0x0(%rax,%rax,1)
    11de:	00 00 
    11e0:	5d                   	pop    %rbp
    11e1:	c3                   	retq   
    11e2:	0f 1f 40 00          	nopl   0x0(%rax)
    11e6:	66 2e 0f 1f 84 00 00 	nopw   %cs:0x0(%rax,%rax,1)
    11ed:	00 00 00 

00000000000011f0 <__do_global_dtors_aux>:
    11f0:	80 3d 01 36 20 00 00 	cmpb   $0x0,0x203601(%rip)        # 2047f8 <completed.6972>
    11f7:	75 27                	jne    1220 <__do_global_dtors_aux+0x30>
    11f9:	48 83 3d f7 2d 20 00 	cmpq   $0x0,0x202df7(%rip)        # 203ff8 <__cxa_finalize@GLIBC_2.2.5>
    1200:	00 
    1201:	55                   	push   %rbp
    1202:	48 89 e5             	mov    %rsp,%rbp
    1205:	74 0c                	je     1213 <__do_global_dtors_aux+0x23>
    1207:	48 8b 3d 1a 2f 20 00 	mov    0x202f1a(%rip),%rdi        # 204128 <__dso_handle>
    120e:	e8 0d ff ff ff       	callq  1120 <__cxa_finalize@plt>
    1213:	e8 48 ff ff ff       	callq  1160 <deregister_tm_clones>
    1218:	5d                   	pop    %rbp
    1219:	c6 05 d8 35 20 00 01 	movb   $0x1,0x2035d8(%rip)        # 2047f8 <completed.6972>
    1220:	f3 c3                	repz retq 
    1222:	0f 1f 40 00          	nopl   0x0(%rax)
    1226:	66 2e 0f 1f 84 00 00 	nopw   %cs:0x0(%rax,%rax,1)
    122d:	00 00 00 

0000000000001230 <frame_dummy>:
    1230:	48 8d 3d b1 2b 20 00 	lea    0x202bb1(%rip),%rdi        # 203de8 <__JCR_END__>
    1237:	48 83 3f 00          	cmpq   $0x0,(%rdi)
    123b:	75 0b                	jne    1248 <frame_dummy+0x18>
    123d:	e9 5e ff ff ff       	jmpq   11a0 <register_tm_clones>
    1242:	66 0f 1f 44 00 00    	nopw   0x0(%rax,%rax,1)
    1248:	48 8b 05 99 2d 20 00 	mov    0x202d99(%rip),%rax        # 203fe8 <_Jv_RegisterClasses>
    124f:	48 85 c0             	test   %rax,%rax
    1252:	74 e9                	je     123d <frame_dummy+0xd>
    1254:	55                   	push   %rbp
    1255:	48 89 e5             	mov    %rsp,%rbp
    1258:	ff d0                	callq  *%rax
    125a:	5d                   	pop    %rbp
    125b:	e9 40 ff ff ff       	jmpq   11a0 <register_tm_clones>

0000000000001260 <main>:
    1260:	53                   	push   %rbx
    1261:	83 ff 01             	cmp    $0x1,%edi
    1264:	0f 84 f8 00 00 00    	je     1362 <main+0x102>
    126a:	48 89 f3             	mov    %rsi,%rbx
    126d:	83 ff 02             	cmp    $0x2,%edi
    1270:	0f 85 1c 01 00 00    	jne    1392 <main+0x132>
    1276:	48 8b 7e 08          	mov    0x8(%rsi),%rdi
    127a:	48 8d 35 59 14 00 00 	lea    0x1459(%rip),%rsi        # 26da <array.3089+0x22a>
    1281:	e8 0a fe ff ff       	callq  1090 <fopen@plt>
    1286:	48 89 05 73 35 20 00 	mov    %rax,0x203573(%rip)        # 204800 <infile>
    128d:	48 85 c0             	test   %rax,%rax
    1290:	0f 84 df 00 00 00    	je     1375 <main+0x115>
    1296:	e8 b5 06 00 00       	callq  1950 <initialize_bomb>
    129b:	48 8d 3d b6 10 00 00 	lea    0x10b6(%rip),%rdi        # 2358 <_IO_stdin_used+0x88>
    12a2:	e8 a9 fc ff ff       	callq  f50 <puts@plt>
    12a7:	48 8d 3d ea 10 00 00 	lea    0x10ea(%rip),%rdi        # 2398 <_IO_stdin_used+0xc8>
    12ae:	e8 9d fc ff ff       	callq  f50 <puts@plt>
    12b3:	e8 f3 0d 00 00       	callq  20ab <read_line>
    12b8:	48 89 c7             	mov    %rax,%rdi
    12bb:	e8 f0 00 00 00       	callq  13b0 <phase_1>
    12c0:	e8 e7 0e 00 00       	callq  21ac <phase_defused>
    12c5:	48 8d 3d fc 10 00 00 	lea    0x10fc(%rip),%rdi        # 23c8 <_IO_stdin_used+0xf8>
    12cc:	e8 7f fc ff ff       	callq  f50 <puts@plt>
    12d1:	e8 d5 0d 00 00       	callq  20ab <read_line>
    12d6:	48 89 c7             	mov    %rax,%rdi
    12d9:	e8 f2 00 00 00       	callq  13d0 <phase_2>
    12de:	e8 c9 0e 00 00       	callq  21ac <phase_defused>
    12e3:	48 8d 3d 21 10 00 00 	lea    0x1021(%rip),%rdi        # 230b <_IO_stdin_used+0x3b>
    12ea:	e8 61 fc ff ff       	callq  f50 <puts@plt>
    12ef:	e8 b7 0d 00 00       	callq  20ab <read_line>
    12f4:	48 89 c7             	mov    %rax,%rdi
    12f7:	e8 1c 01 00 00       	callq  1418 <phase_3>
    12fc:	e8 ab 0e 00 00       	callq  21ac <phase_defused>
    1301:	48 8d 3d 21 10 00 00 	lea    0x1021(%rip),%rdi        # 2329 <_IO_stdin_used+0x59>
    1308:	e8 43 fc ff ff       	callq  f50 <puts@plt>
    130d:	e8 99 0d 00 00       	callq  20ab <read_line>
    1312:	48 89 c7             	mov    %rax,%rdi
    1315:	e8 7e 02 00 00       	callq  1598 <phase_4>
    131a:	e8 8d 0e 00 00       	callq  21ac <phase_defused>
    131f:	48 8d 3d d2 10 00 00 	lea    0x10d2(%rip),%rdi        # 23f8 <_IO_stdin_used+0x128>
    1326:	e8 25 fc ff ff       	callq  f50 <puts@plt>
    132b:	e8 7b 0d 00 00       	callq  20ab <read_line>
    1330:	48 89 c7             	mov    %rax,%rdi
    1333:	e8 a7 02 00 00       	callq  15df <phase_5>
    1338:	e8 6f 0e 00 00       	callq  21ac <phase_defused>
    133d:	48 8d 3d f4 0f 00 00 	lea    0xff4(%rip),%rdi        # 2338 <_IO_stdin_used+0x68>
    1344:	e8 07 fc ff ff       	callq  f50 <puts@plt>
    1349:	e8 5d 0d 00 00       	callq  20ab <read_line>
    134e:	48 89 c7             	mov    %rax,%rdi
    1351:	e8 54 03 00 00       	callq  16aa <phase_6>
    1356:	e8 51 0e 00 00       	callq  21ac <phase_defused>
    135b:	b8 00 00 00 00       	mov    $0x0,%eax
    1360:	5b                   	pop    %rbx
    1361:	c3                   	retq   
    1362:	48 8b 05 87 34 20 00 	mov    0x203487(%rip),%rax        # 2047f0 <stdin@@GLIBC_2.2.5>
    1369:	48 89 05 90 34 20 00 	mov    %rax,0x203490(%rip)        # 204800 <infile>
    1370:	e9 21 ff ff ff       	jmpq   1296 <main+0x36>
    1375:	48 8b 53 08          	mov    0x8(%rbx),%rdx
    1379:	48 8b 33             	mov    (%rbx),%rsi
    137c:	48 8d 3d 51 0f 00 00 	lea    0xf51(%rip),%rdi        # 22d4 <_IO_stdin_used+0x4>
    1383:	e8 08 fc ff ff       	callq  f90 <printf@plt>
    1388:	bf 08 00 00 00       	mov    $0x8,%edi
    138d:	e8 2e fd ff ff       	callq  10c0 <exit@plt>
    1392:	48 8b 36             	mov    (%rsi),%rsi
    1395:	48 8d 3d 55 0f 00 00 	lea    0xf55(%rip),%rdi        # 22f1 <_IO_stdin_used+0x21>
    139c:	b8 00 00 00 00       	mov    $0x0,%eax
    13a1:	e8 ea fb ff ff       	callq  f90 <printf@plt>
    13a6:	bf 08 00 00 00       	mov    $0x8,%edi
    13ab:	e8 10 fd ff ff       	callq  10c0 <exit@plt>

00000000000013b0 <phase_1>:
    13b0:	48 83 ec 08          	sub    $0x8,%rsp
    13b4:	48 8d 35 65 10 00 00 	lea    0x1065(%rip),%rsi        # 2420 <_IO_stdin_used+0x150>
    13bb:	e8 5e 04 00 00       	callq  181e <strings_not_equal>
    13c0:	85 c0                	test   %eax,%eax
    13c2:	75 05                	jne    13c9 <phase_1+0x19>
    13c4:	48 83 c4 08          	add    $0x8,%rsp
    13c8:	c3                   	retq   
    13c9:	e8 60 0c 00 00       	callq  202e <explode_bomb>
    13ce:	eb f4                	jmp    13c4 <phase_1+0x14>

00000000000013d0 <phase_2>:
    13d0:	55                   	push   %rbp
    13d1:	53                   	push   %rbx
    13d2:	48 83 ec 28          	sub    $0x28,%rsp
    13d6:	48 89 e6             	mov    %rsp,%rsi
    13d9:	e8 8c 0c 00 00       	callq  206a <read_six_numbers>
    13de:	83 3c 24 01          	cmpl   $0x1,(%rsp)
    13e2:	74 05                	je     13e9 <phase_2+0x19>
    13e4:	e8 45 0c 00 00       	callq  202e <explode_bomb>
    13e9:	48 89 e5             	mov    %rsp,%rbp
    13ec:	bb 01 00 00 00       	mov    $0x1,%ebx
    13f1:	eb 09                	jmp    13fc <phase_2+0x2c>
    13f3:	48 83 c5 04          	add    $0x4,%rbp
    13f7:	83 fb 06             	cmp    $0x6,%ebx
    13fa:	74 15                	je     1411 <phase_2+0x41>
    13fc:	83 c3 01             	add    $0x1,%ebx
    13ff:	89 d8                	mov    %ebx,%eax
    1401:	0f af 45 00          	imul   0x0(%rbp),%eax
    1405:	39 45 04             	cmp    %eax,0x4(%rbp)
    1408:	74 e9                	je     13f3 <phase_2+0x23>
    140a:	e8 1f 0c 00 00       	callq  202e <explode_bomb>
    140f:	eb e2                	jmp    13f3 <phase_2+0x23>
    1411:	48 83 c4 28          	add    $0x28,%rsp
    1415:	5b                   	pop    %rbx
    1416:	5d                   	pop    %rbp
    1417:	c3                   	retq   

0000000000001418 <phase_3>:
    1418:	48 83 ec 18          	sub    $0x18,%rsp
    141c:	48 8d 4c 24 07       	lea    0x7(%rsp),%rcx   # 2->%c
    1421:	48 8d 54 24 0c       	lea    0xc(%rsp),%rdx   # 1->%d aka d1
    1426:	4c 8d 44 24 08       	lea    0x8(%rsp),%r8    # 3->%d aka d2
    142b:	48 8d 35 4c 10 00 00 	lea    0x104c(%rip),%rsi        # 247e <_IO_stdin_used+0x1ae>
    1432:	b8 00 00 00 00       	mov    $0x0,%eax
    1437:	e8 24 fc ff ff       	callq  1060 <__isoc99_sscanf@plt>
    143c:	83 f8 02             	cmp    $0x2,%eax
    143f:	7e 1f                	jle    1460 <phase_3+0x48>
    1441:	83 7c 24 0c 07       	cmpl   $0x7,0xc(%rsp) 
    1446:	0f 87 0c 01 00 00    	ja     1558 <phase_3+0x140>
    144c:	8b 44 24 0c          	mov    0xc(%rsp),%eax   # %eax<-d1
    1450:	48 8d 15 39 10 00 00 	lea    0x1039(%rip),%rdx        # 2490 <_IO_stdin_used+0x1c0>
    1457:	48 63 04 82          	movslq (%rdx,%rax,4),%rax   # 0x1039(%rip) as an array, visit a[%rax] (4byte)
    145b:	48 01 d0             	add    %rdx,%rax
    145e:	ff e0                	jmpq   *%rax
    1460:	e8 c9 0b 00 00       	callq  202e <explode_bomb>
    1465:	eb da                	jmp    1441 <phase_3+0x29>
    1467:	b8 70 00 00 00       	mov    $0x70,%eax
    146c:	81 7c 24 08 e9 02 00 	cmpl   $0x2e9,0x8(%rsp)
    1473:	00 
    1474:	0f 84 e8 00 00 00    	je     1562 <phase_3+0x14a>
    147a:	e8 af 0b 00 00       	callq  202e <explode_bomb>
    147f:	b8 70 00 00 00       	mov    $0x70,%eax
    1484:	e9 d9 00 00 00       	jmpq   1562 <phase_3+0x14a>
    1489:	b8 6f 00 00 00       	mov    $0x6f,%eax
    148e:	81 7c 24 08 e1 01 00 	cmpl   $0x1e1,0x8(%rsp)
    1495:	00 
    1496:	0f 84 c6 00 00 00    	je     1562 <phase_3+0x14a>
    149c:	e8 8d 0b 00 00       	callq  202e <explode_bomb>
    14a1:	b8 6f 00 00 00       	mov    $0x6f,%eax
    14a6:	e9 b7 00 00 00       	jmpq   1562 <phase_3+0x14a>
    14ab:	b8 6d 00 00 00       	mov    $0x6d,%eax
    14b0:	81 7c 24 08 91 00 00 	cmpl   $0x91,0x8(%rsp)
    14b7:	00 
    14b8:	0f 84 a4 00 00 00    	je     1562 <phase_3+0x14a>
    14be:	e8 6b 0b 00 00       	callq  202e <explode_bomb>
    14c3:	b8 6d 00 00 00       	mov    $0x6d,%eax
    14c8:	e9 95 00 00 00       	jmpq   1562 <phase_3+0x14a>
    14cd:	b8 63 00 00 00       	mov    $0x63,%eax
    14d2:	81 7c 24 08 df 01 00 	cmpl   $0x1df,0x8(%rsp)
    14d9:	00 
    14da:	0f 84 82 00 00 00    	je     1562 <phase_3+0x14a>
    14e0:	e8 49 0b 00 00       	callq  202e <explode_bomb>
    14e5:	b8 63 00 00 00       	mov    $0x63,%eax
    14ea:	eb 76                	jmp    1562 <phase_3+0x14a>
    14ec:	b8 6b 00 00 00       	mov    $0x6b,%eax
    14f1:	81 7c 24 08 a7 03 00 	cmpl   $0x3a7,0x8(%rsp)
    14f8:	00 
    14f9:	74 67                	je     1562 <phase_3+0x14a>
    14fb:	e8 2e 0b 00 00       	callq  202e <explode_bomb>
    1500:	b8 6b 00 00 00       	mov    $0x6b,%eax
    1505:	eb 5b                	jmp    1562 <phase_3+0x14a>
    1507:	b8 6f 00 00 00       	mov    $0x6f,%eax
    150c:	81 7c 24 08 fb 00 00 	cmpl   $0xfb,0x8(%rsp)
    1513:	00 
    1514:	74 4c                	je     1562 <phase_3+0x14a>
    1516:	e8 13 0b 00 00       	callq  202e <explode_bomb>
    151b:	b8 6f 00 00 00       	mov    $0x6f,%eax
    1520:	eb 40                	jmp    1562 <phase_3+0x14a>
    1522:	b8 79 00 00 00       	mov    $0x79,%eax
    1527:	81 7c 24 08 06 03 00 	cmpl   $0x306,0x8(%rsp)
    152e:	00 
    152f:	74 31                	je     1562 <phase_3+0x14a>
    1531:	e8 f8 0a 00 00       	callq  202e <explode_bomb>
    1536:	b8 79 00 00 00       	mov    $0x79,%eax
    153b:	eb 25                	jmp    1562 <phase_3+0x14a>
    153d:	b8 64 00 00 00       	mov    $0x64,%eax
    1542:	81 7c 24 08 60 02 00 	cmpl   $0x260,0x8(%rsp)
    1549:	00 
    154a:	74 16                	je     1562 <phase_3+0x14a>
    154c:	e8 dd 0a 00 00       	callq  202e <explode_bomb>
    1551:	b8 64 00 00 00       	mov    $0x64,%eax
    1556:	eb 0a                	jmp    1562 <phase_3+0x14a>
    1558:	e8 d1 0a 00 00       	callq  202e <explode_bomb>
    155d:	b8 73 00 00 00       	mov    $0x73,%eax
    1562:	3a 44 24 07          	cmp    0x7(%rsp),%al
    1566:	74 05                	je     156d <phase_3+0x155>
    1568:	e8 c1 0a 00 00       	callq  202e <explode_bomb>
    156d:	48 83 c4 18          	add    $0x18,%rsp
    1571:	c3                   	retq   

0000000000001572 <func4>:
    1572:	b8 01 00 00 00       	mov    $0x1,%eax        # %eax <- 1
    1577:	85 ff                	test   %edi,%edi        # %edi != 0
    1579:	7e 1b                	jle    1596 <func4+0x24>
    157b:	48 83 ec 08          	sub    $0x8,%rsp
    157f:	83 ef 01             	sub    $0x1,%edi        # d-1
    1582:	e8 eb ff ff ff       	callq  1572 <func4>
    1587:	8d 14 c5 00 00 00 00 	lea    0x0(,%rax,8),%edx  # edx<-8*ret
    158e:	29 c2                	sub    %eax,%edx        # edx <- 7*ret
    1590:	89 d0                	mov    %edx,%eax        # %rax<-7*ret
    1592:	48 83 c4 08          	add    $0x8,%rsp
    1596:	f3 c3                	repz retq 

0000000000001598 <phase_4>:
    1598:	48 83 ec 18          	sub    $0x18,%rsp
    159c:	48 8d 54 24 0c       	lea    0xc(%rsp),%rdx
    15a1:	48 8d 35 dc 0e 00 00 	lea    0xedc(%rip),%rsi        # 2484 <_IO_stdin_used+0x1b4>
    15a8:	b8 00 00 00 00       	mov    $0x0,%eax
    15ad:	e8 ae fa ff ff       	callq  1060 <__isoc99_sscanf@plt>
    15b2:	83 f8 01             	cmp    $0x1,%eax
    15b5:	74 1f                	je     15d6 <phase_4+0x3e>
    15b7:	e8 72 0a 00 00       	callq  202e <explode_bomb>
    15bc:	8b 7c 24 0c          	mov    0xc(%rsp),%edi       # edi<-d
    15c0:	e8 ad ff ff ff       	callq  1572 <func4>
    15c5:	3d a7 41 00 00       	cmp    $0x41a7,%eax         # return 0x41a7
    15ca:	74 05                	je     15d1 <phase_4+0x39>
    15cc:	e8 5d 0a 00 00       	callq  202e <explode_bomb>
    15d1:	48 83 c4 18          	add    $0x18,%rsp
    15d5:	c3                   	retq   
    15d6:	83 7c 24 0c 00       	cmpl   $0x0,0xc(%rsp)
    15db:	7f df                	jg     15bc <phase_4+0x24>
    15dd:	eb d8                	jmp    15b7 <phase_4+0x1f>

00000000000015df <phase_5>:
    15df:	53                   	push   %rbx
    15e0:	48 83 ec 10          	sub    $0x10,%rsp
    15e4:	48 89 fb             	mov    %rdi,%rbx            # %rbx<-char *str
    15e7:	e8 14 02 00 00       	callq  1800 <string_length>
    15ec:	83 f8 06             	cmp    $0x6,%eax
    15ef:	74 05                	je     15f6 <phase_5+0x17>
    15f1:	e8 38 0a 00 00       	callq  202e <explode_bomb>
    15f6:	b8 00 00 00 00       	mov    $0x0,%eax
    15fb:	48 8d 0d ae 0e 00 00 	lea    0xeae(%rip),%rcx        # 24b0 <array.3089>
    1602:	0f b6 14 03          	movzbl (%rbx,%rax,1),%edx
    1606:	83 e2 0f             	and    $0xf,%edx
    1609:	0f b6 14 11          	movzbl (%rcx,%rdx,1),%edx
    160d:	88 54 04 09          	mov    %dl,0x9(%rsp,%rax,1)
    1611:	48 83 c0 01          	add    $0x1,%rax
    1615:	48 83 f8 06          	cmp    $0x6,%rax
    1619:	75 e7                	jne    1602 <phase_5+0x23>
    161b:	c6 44 24 0f 00       	movb   $0x0,0xf(%rsp)
    1620:	48 8d 7c 24 09       	lea    0x9(%rsp),%rdi
    1625:	48 8d 35 5b 0e 00 00 	lea    0xe5b(%rip),%rsi        # 2487 <_IO_stdin_used+0x1b7>
    162c:	e8 ed 01 00 00       	callq  181e <strings_not_equal>
    1631:	85 c0                	test   %eax,%eax
    1633:	75 06                	jne    163b <phase_5+0x5c>
    1635:	48 83 c4 10          	add    $0x10,%rsp
    1639:	5b                   	pop    %rbx
    163a:	c3                   	retq   
    163b:	e8 ee 09 00 00       	callq  202e <explode_bomb>
    1640:	eb f3                	jmp    1635 <phase_5+0x56>

0000000000001642 <fun6>:
    1642:	48 89 f8             	mov    %rdi,%rax        # %rdi is pointer to num %rax:head
    1645:	4c 8b 47 08          	mov    0x8(%rdi),%r8    # %r8: node1
    1649:	48 c7 47 08 00 00 00 	movq   $0x0,0x8(%rdi)   
    1650:	00 
    1651:	48 89 fa             	mov    %rdi,%rdx        # %rdx: node0
    1654:	4d 85 c0             	test   %r8,%r8          # %r8node0->next == NULL -> return
    1657:	75 2e                	jne    1687 <fun6+0x45>
    1659:	f3 c3                	repz retq 
    165b:	48 89 d1             	mov    %rdx,%rcx        # tmp = node0
    165e:	48 8b 51 08          	mov    0x8(%rcx),%rdx   # node0 = tmp->next
    1662:	48 85 d2             	test   %rdx,%rdx
    1665:	74 04                	je     166b <fun6+0x29> # jmp <- node0 == NULL
    1667:	39 32                	cmp    %esi,(%rdx)      # node0 > esi(node1) ->move next 
    1669:	7f f0                	jg     165b <fun6+0x19>
    166b:	48 39 d1             	cmp    %rdx,%rcx
    166e:	74 33                	je     16a3 <fun6+0x61>
    1670:	4c 89 41 08          	mov    %r8,0x8(%rcx)    # node2 rcx->next = r8
    1674:	49 8b 48 08          	mov    0x8(%r8),%rcx    # rcx       = node1->next node0->next = node1
    1678:	49 89 50 08          	mov    %rdx,0x8(%r8)    # node1 ->next = node0
    167c:	48 89 c2             	mov    %rax,%rdx        # node0 = rax(node1)
    167f:	49 89 c8             	mov    %rcx,%r8         # node1 = rcx r8: node2
    1682:	48 85 c9             	test   %rcx,%rcx        
    1685:	74 21                	je     16a8 <fun6+0x66> # rcx == NULL -> RETURN
    1687:	48 85 d2             	test   %rdx,%rdx        # node0 == NULL -> 169e (begin)
    168a:	74 12                	je     169e <fun6+0x5c>
    168c:	41 8b 30             	mov    (%r8),%esi       # esi = node1 (node0 not null)
    168f:	48 89 c1             	mov    %rax,%rcx        # tmp = head node0
    1692:	39 32                	cmp    %esi,(%rdx)      
    1694:	7f c8                	jg     165e <fun6+0x1c> # node0 > node1
    1696:	48 89 c2             	mov    %rax,%rdx        # rdx = node0
    1699:	4c 89 c0             	mov    %r8,%rax         # rax = node1
    169c:	eb d6                	jmp    1674 <fun6+0x32>
    169e:	48 89 c1             	mov    %rax,%rcx
    16a1:	eb c8                	jmp    166b <fun6+0x29>
    16a3:	4c 89 c0             	mov    %r8,%rax
    16a6:	eb cc                	jmp    1674 <fun6+0x32>
    16a8:	f3 c3                	repz retq 

00000000000016aa <phase_6>:
    16aa:	48 83 ec 08          	sub    $0x8,%rsp
    16ae:	ba 0a 00 00 00       	mov    $0xa,%edx
    16b3:	be 00 00 00 00       	mov    $0x0,%esi
    16b8:	e8 73 f9 ff ff       	callq  1030 <strtol@plt>    # turn str to long (base10)
    16bd:	89 05 8d 30 20 00    	mov    %eax,0x20308d(%rip)        # 204750 <node0>
    16c3:	48 8d 3d 86 30 20 00 	lea    0x203086(%rip),%rdi        # 204750 <node0>
    16ca:	e8 73 ff ff ff       	callq  1642 <fun6>
    16cf:	48 8b 40 08          	mov    0x8(%rax),%rax
    16d3:	48 8b 40 08          	mov    0x8(%rax),%rax
    16d7:	48 8b 40 08          	mov    0x8(%rax),%rax
    16db:	48 8b 40 08          	mov    0x8(%rax),%rax
    16df:	8b 0d 6b 30 20 00    	mov    0x20306b(%rip),%ecx        # 204750 <node0>
    16e5:	39 08                	cmp    %ecx,(%rax)
    16e7:	74 05                	je     16ee <phase_6+0x44>
    16e9:	e8 40 09 00 00       	callq  202e <explode_bomb>
    16ee:	48 83 c4 08          	add    $0x8,%rsp
    16f2:	c3                   	retq   

00000000000016f3 <fun7>:  # %rdi: ->36 %rsi: num
    16f3:	48 85 ff             	test   %rdi,%rdi
    16f6:	74 32                	je     172a <fun7+0x37>
    16f8:	48 83 ec 08          	sub    $0x8,%rsp
    16fc:	8b 17                	mov    (%rdi),%edx
    16fe:	39 f2                	cmp    %esi,%edx        # root > param -> jump
    1700:	7f 1b                	jg     171d <fun7+0x2a>
    1702:	b8 00 00 00 00       	mov    $0x0,%eax
    1707:	39 f2                	cmp    %esi,%edx        # find it!
    1709:	74 0d                	je     1718 <fun7+0x25>
    170b:	48 8b 7f 10          	mov    0x10(%rdi),%rdi  # node->rChild
    170f:	e8 df ff ff ff       	callq  16f3 <fun7>
    1714:	8d 44 00 01          	lea    0x1(%rax,%rax,1),%eax
    1718:	48 83 c4 08          	add    $0x8,%rsp
    171c:	c3                   	retq   
    171d:	48 8b 7f 08          	mov    0x8(%rdi),%rdi   # node->lChild
    1721:	e8 cd ff ff ff       	callq  16f3 <fun7>
    1726:	01 c0                	add    %eax,%eax         # idx*2
    1728:	eb ee                	jmp    1718 <fun7+0x25>
    172a:	b8 ff ff ff ff       	mov    $0xffffffff,%eax
    172f:	c3                   	retq   

0000000000001730 <secret_phase>: # binary tree
    1730:	53                   	push   %rbx
    1731:	e8 75 09 00 00       	callq  20ab <read_line>
    1736:	ba 0a 00 00 00       	mov    $0xa,%edx         # @param: base10
    173b:	be 00 00 00 00       	mov    $0x0,%esi
    1740:	48 89 c7             	mov    %rax,%rdi
    1743:	e8 e8 f8 ff ff       	callq  1030 <strtol@plt> # read a long from input
    1748:	48 89 c3             	mov    %rax,%rbx         # %rbx <- num
    174b:	8d 40 ff             	lea    -0x1(%rax),%eax   # %eax <- num-1
    174e:	3d e8 03 00 00       	cmp    $0x3e8,%eax       # num-1 > 1000 (unsigned)
    1753:	77 2b                	ja     1780 <secret_phase+0x50>
    1755:	89 de                	mov    %ebx,%esi         # %esi <- num
    1757:	48 8d 3d 12 2f 20 00 	lea    0x202f12(%rip),%rdi        # 204670 <n1> val: 36
    175e:	e8 90 ff ff ff       	callq  16f3 <fun7>       # expecting 6 fun7(36, num)
    1763:	83 f8 06             	cmp    $0x6,%eax 
    1766:	74 05                	je     176d <secret_phase+0x3d>
    1768:	e8 c1 08 00 00       	callq  202e <explode_bomb>
    176d:	48 8d 3d e4 0c 00 00 	lea    0xce4(%rip),%rdi        # 2458 <_IO_stdin_used+0x188>
    1774:	e8 d7 f7 ff ff       	callq  f50 <puts@plt>
    1779:	e8 2e 0a 00 00       	callq  21ac <phase_defused>
    177e:	5b                   	pop    %rbx
    177f:	c3                   	retq   
    1780:	e8 a9 08 00 00       	callq  202e <explode_bomb>
    1785:	eb ce                	jmp    1755 <secret_phase+0x25>

0000000000001787 <sig_handler>:
    1787:	48 83 ec 08          	sub    $0x8,%rsp
    178b:	48 8d 3d 2e 0d 00 00 	lea    0xd2e(%rip),%rdi        # 24c0 <array.3089+0x10>
    1792:	e8 b9 f7 ff ff       	callq  f50 <puts@plt>
    1797:	bf 03 00 00 00       	mov    $0x3,%edi
    179c:	e8 4f f9 ff ff       	callq  10f0 <sleep@plt>
    17a1:	48 8d 3d 50 0e 00 00 	lea    0xe50(%rip),%rdi        # 25f8 <array.3089+0x148>
    17a8:	b8 00 00 00 00       	mov    $0x0,%eax
    17ad:	e8 de f7 ff ff       	callq  f90 <printf@plt>
    17b2:	48 8b 3d 27 30 20 00 	mov    0x203027(%rip),%rdi        # 2047e0 <stdout@@GLIBC_2.2.5>
    17b9:	e8 92 f8 ff ff       	callq  1050 <fflush@plt>
    17be:	bf 01 00 00 00       	mov    $0x1,%edi
    17c3:	e8 28 f9 ff ff       	callq  10f0 <sleep@plt>
    17c8:	48 8d 3d 31 0e 00 00 	lea    0xe31(%rip),%rdi        # 2600 <array.3089+0x150>
    17cf:	e8 7c f7 ff ff       	callq  f50 <puts@plt>
    17d4:	bf 10 00 00 00       	mov    $0x10,%edi
    17d9:	e8 e2 f8 ff ff       	callq  10c0 <exit@plt>

00000000000017de <invalid_phase>:
    17de:	48 83 ec 08          	sub    $0x8,%rsp
    17e2:	48 89 fe             	mov    %rdi,%rsi
    17e5:	48 8d 3d 1c 0e 00 00 	lea    0xe1c(%rip),%rdi        # 2608 <array.3089+0x158>
    17ec:	b8 00 00 00 00       	mov    $0x0,%eax
    17f1:	e8 9a f7 ff ff       	callq  f90 <printf@plt>
    17f6:	bf 08 00 00 00       	mov    $0x8,%edi
    17fb:	e8 c0 f8 ff ff       	callq  10c0 <exit@plt>

0000000000001800 <string_length>:
    1800:	80 3f 00             	cmpb   $0x0,(%rdi)
    1803:	74 13                	je     1818 <string_length+0x18>
    1805:	b8 00 00 00 00       	mov    $0x0,%eax
    180a:	48 83 c7 01          	add    $0x1,%rdi
    180e:	83 c0 01             	add    $0x1,%eax
    1811:	80 3f 00             	cmpb   $0x0,(%rdi)
    1814:	75 f4                	jne    180a <string_length+0xa>
    1816:	f3 c3                	repz retq 
    1818:	b8 00 00 00 00       	mov    $0x0,%eax
    181d:	c3                   	retq   

000000000000181e <strings_not_equal>:
    181e:	41 54                	push   %r12
    1820:	55                   	push   %rbp
    1821:	53                   	push   %rbx
    1822:	48 89 fb             	mov    %rdi,%rbx
    1825:	48 89 f5             	mov    %rsi,%rbp
    1828:	e8 d3 ff ff ff       	callq  1800 <string_length>
    182d:	41 89 c4             	mov    %eax,%r12d
    1830:	48 89 ef             	mov    %rbp,%rdi
    1833:	e8 c8 ff ff ff       	callq  1800 <string_length>
    1838:	ba 01 00 00 00       	mov    $0x1,%edx
    183d:	41 39 c4             	cmp    %eax,%r12d
    1840:	74 07                	je     1849 <strings_not_equal+0x2b>
    1842:	89 d0                	mov    %edx,%eax
    1844:	5b                   	pop    %rbx
    1845:	5d                   	pop    %rbp
    1846:	41 5c                	pop    %r12
    1848:	c3                   	retq   
    1849:	0f b6 03             	movzbl (%rbx),%eax
    184c:	84 c0                	test   %al,%al
    184e:	74 27                	je     1877 <strings_not_equal+0x59>
    1850:	3a 45 00             	cmp    0x0(%rbp),%al
    1853:	75 29                	jne    187e <strings_not_equal+0x60>
    1855:	48 83 c3 01          	add    $0x1,%rbx
    1859:	48 83 c5 01          	add    $0x1,%rbp
    185d:	0f b6 03             	movzbl (%rbx),%eax
    1860:	84 c0                	test   %al,%al
    1862:	74 0c                	je     1870 <strings_not_equal+0x52>
    1864:	3a 45 00             	cmp    0x0(%rbp),%al
    1867:	74 ec                	je     1855 <strings_not_equal+0x37>
    1869:	ba 01 00 00 00       	mov    $0x1,%edx
    186e:	eb d2                	jmp    1842 <strings_not_equal+0x24>
    1870:	ba 00 00 00 00       	mov    $0x0,%edx
    1875:	eb cb                	jmp    1842 <strings_not_equal+0x24>
    1877:	ba 00 00 00 00       	mov    $0x0,%edx
    187c:	eb c4                	jmp    1842 <strings_not_equal+0x24>
    187e:	ba 01 00 00 00       	mov    $0x1,%edx
    1883:	eb bd                	jmp    1842 <strings_not_equal+0x24>

0000000000001885 <open_clientfd>:
    1885:	41 54                	push   %r12
    1887:	55                   	push   %rbp
    1888:	53                   	push   %rbx
    1889:	48 83 ec 10          	sub    $0x10,%rsp
    188d:	49 89 fc             	mov    %rdi,%r12
    1890:	89 f3                	mov    %esi,%ebx
    1892:	ba 00 00 00 00       	mov    $0x0,%edx
    1897:	be 01 00 00 00       	mov    $0x1,%esi
    189c:	bf 02 00 00 00       	mov    $0x2,%edi
    18a1:	e8 6a f8 ff ff       	callq  1110 <socket@plt>
    18a6:	85 c0                	test   %eax,%eax
    18a8:	78 64                	js     190e <open_clientfd+0x89>
    18aa:	89 c5                	mov    %eax,%ebp
    18ac:	4c 89 e7             	mov    %r12,%rdi
    18af:	e8 5c f7 ff ff       	callq  1010 <gethostbyname@plt>
    18b4:	48 85 c0             	test   %rax,%rax
    18b7:	74 6b                	je     1924 <open_clientfd+0x9f>
    18b9:	48 c7 04 24 00 00 00 	movq   $0x0,(%rsp)
    18c0:	00 
    18c1:	48 c7 44 24 08 00 00 	movq   $0x0,0x8(%rsp)
    18c8:	00 00 
    18ca:	66 c7 04 24 02 00    	movw   $0x2,(%rsp)
    18d0:	48 63 50 14          	movslq 0x14(%rax),%rdx
    18d4:	48 8d 74 24 04       	lea    0x4(%rsp),%rsi
    18d9:	48 8b 40 18          	mov    0x18(%rax),%rax
    18dd:	48 8b 38             	mov    (%rax),%rdi
    18e0:	e8 8b f7 ff ff       	callq  1070 <bcopy@plt>
    18e5:	89 de                	mov    %ebx,%esi
    18e7:	66 c1 ce 08          	ror    $0x8,%si
    18eb:	66 89 74 24 02       	mov    %si,0x2(%rsp)
    18f0:	ba 10 00 00 00       	mov    $0x10,%edx
    18f5:	48 89 e6             	mov    %rsp,%rsi
    18f8:	89 ef                	mov    %ebp,%edi
    18fa:	e8 d1 f7 ff ff       	callq  10d0 <connect@plt>
    18ff:	85 c0                	test   %eax,%eax
    1901:	78 37                	js     193a <open_clientfd+0xb5>
    1903:	89 e8                	mov    %ebp,%eax
    1905:	48 83 c4 10          	add    $0x10,%rsp
    1909:	5b                   	pop    %rbx
    190a:	5d                   	pop    %rbp
    190b:	41 5c                	pop    %r12
    190d:	c3                   	retq   
    190e:	48 8d 3d 04 0d 00 00 	lea    0xd04(%rip),%rdi        # 2619 <array.3089+0x169>
    1915:	e8 36 f6 ff ff       	callq  f50 <puts@plt>
    191a:	bf 08 00 00 00       	mov    $0x8,%edi
    191f:	e8 9c f7 ff ff       	callq  10c0 <exit@plt>
    1924:	48 8d 3d fc 0c 00 00 	lea    0xcfc(%rip),%rdi        # 2627 <array.3089+0x177>
    192b:	e8 20 f6 ff ff       	callq  f50 <puts@plt>
    1930:	bf 08 00 00 00       	mov    $0x8,%edi
    1935:	e8 86 f7 ff ff       	callq  10c0 <exit@plt>
    193a:	48 8d 3d f4 0c 00 00 	lea    0xcf4(%rip),%rdi        # 2635 <array.3089+0x185>
    1941:	e8 0a f6 ff ff       	callq  f50 <puts@plt>
    1946:	bf 08 00 00 00       	mov    $0x8,%edi
    194b:	e8 70 f7 ff ff       	callq  10c0 <exit@plt>

0000000000001950 <initialize_bomb>:
    1950:	48 83 ec 08          	sub    $0x8,%rsp
    1954:	48 8d 35 2c fe ff ff 	lea    -0x1d4(%rip),%rsi        # 1787 <sig_handler>
    195b:	bf 02 00 00 00       	mov    $0x2,%edi
    1960:	e8 9b f6 ff ff       	callq  1000 <signal@plt>
    1965:	be 50 00 00 00       	mov    $0x50,%esi
    196a:	48 8d 3d d2 0c 00 00 	lea    0xcd2(%rip),%rdi        # 2643 <array.3089+0x193>
    1971:	e8 0f ff ff ff       	callq  1885 <open_clientfd>
    1976:	89 c7                	mov    %eax,%edi
    1978:	e8 43 f6 ff ff       	callq  fc0 <close@plt>
    197d:	48 83 c4 08          	add    $0x8,%rsp
    1981:	c3                   	retq   

0000000000001982 <blank_line>:
    1982:	55                   	push   %rbp
    1983:	53                   	push   %rbx
    1984:	48 83 ec 08          	sub    $0x8,%rsp
    1988:	48 89 fd             	mov    %rdi,%rbp
    198b:	0f b6 5d 00          	movzbl 0x0(%rbp),%ebx
    198f:	84 db                	test   %bl,%bl
    1991:	74 1e                	je     19b1 <blank_line+0x2f>
    1993:	e8 68 f7 ff ff       	callq  1100 <__ctype_b_loc@plt>
    1998:	48 83 c5 01          	add    $0x1,%rbp
    199c:	48 0f be db          	movsbq %bl,%rbx
    19a0:	48 8b 00             	mov    (%rax),%rax
    19a3:	f6 44 58 01 20       	testb  $0x20,0x1(%rax,%rbx,2)
    19a8:	75 e1                	jne    198b <blank_line+0x9>
    19aa:	b8 00 00 00 00       	mov    $0x0,%eax
    19af:	eb 05                	jmp    19b6 <blank_line+0x34>
    19b1:	b8 01 00 00 00       	mov    $0x1,%eax
    19b6:	48 83 c4 08          	add    $0x8,%rsp
    19ba:	5b                   	pop    %rbx
    19bb:	5d                   	pop    %rbp
    19bc:	c3                   	retq   

00000000000019bd <skip>:
    19bd:	55                   	push   %rbp
    19be:	53                   	push   %rbx
    19bf:	48 83 ec 08          	sub    $0x8,%rsp
    19c3:	48 8d 2d 56 2e 20 00 	lea    0x202e56(%rip),%rbp        # 204820 <input_strings>
    19ca:	48 63 05 2b 2e 20 00 	movslq 0x202e2b(%rip),%rax        # 2047fc <num_input_strings>
    19d1:	48 8d 3c 80          	lea    (%rax,%rax,4),%rdi
    19d5:	48 c1 e7 04          	shl    $0x4,%rdi
    19d9:	48 01 ef             	add    %rbp,%rdi
    19dc:	48 8b 15 1d 2e 20 00 	mov    0x202e1d(%rip),%rdx        # 204800 <infile>
    19e3:	be 50 00 00 00       	mov    $0x50,%esi
    19e8:	e8 f3 f5 ff ff       	callq  fe0 <fgets@plt>
    19ed:	48 89 c3             	mov    %rax,%rbx
    19f0:	48 85 c0             	test   %rax,%rax
    19f3:	74 0c                	je     1a01 <skip+0x44>
    19f5:	48 89 c7             	mov    %rax,%rdi
    19f8:	e8 85 ff ff ff       	callq  1982 <blank_line>
    19fd:	85 c0                	test   %eax,%eax
    19ff:	75 c9                	jne    19ca <skip+0xd>
    1a01:	48 89 d8             	mov    %rbx,%rax
    1a04:	48 83 c4 08          	add    $0x8,%rsp
    1a08:	5b                   	pop    %rbx
    1a09:	5d                   	pop    %rbp
    1a0a:	c3                   	retq   

0000000000001a0b <writen>:
    1a0b:	41 56                	push   %r14
    1a0d:	41 55                	push   %r13
    1a0f:	41 54                	push   %r12
    1a11:	55                   	push   %rbp
    1a12:	53                   	push   %rbx
    1a13:	49 89 d5             	mov    %rdx,%r13
    1a16:	48 85 d2             	test   %rdx,%rdx
    1a19:	74 3b                	je     1a56 <writen+0x4b>
    1a1b:	41 89 fc             	mov    %edi,%r12d
    1a1e:	48 89 f5             	mov    %rsi,%rbp
    1a21:	48 89 d3             	mov    %rdx,%rbx
    1a24:	41 be 00 00 00 00    	mov    $0x0,%r14d
    1a2a:	eb 08                	jmp    1a34 <writen+0x29>
    1a2c:	48 01 c5             	add    %rax,%rbp
    1a2f:	48 29 c3             	sub    %rax,%rbx
    1a32:	74 22                	je     1a56 <writen+0x4b>
    1a34:	48 89 da             	mov    %rbx,%rdx
    1a37:	48 89 ee             	mov    %rbp,%rsi
    1a3a:	44 89 e7             	mov    %r12d,%edi
    1a3d:	e8 1e f5 ff ff       	callq  f60 <write@plt>
    1a42:	48 85 c0             	test   %rax,%rax
    1a45:	7f e5                	jg     1a2c <writen+0x21>
    1a47:	e8 e4 f4 ff ff       	callq  f30 <__errno_location@plt>
    1a4c:	83 38 04             	cmpl   $0x4,(%rax)
    1a4f:	75 11                	jne    1a62 <writen+0x57>
    1a51:	4c 89 f0             	mov    %r14,%rax
    1a54:	eb d6                	jmp    1a2c <writen+0x21>
    1a56:	4c 89 e8             	mov    %r13,%rax
    1a59:	5b                   	pop    %rbx
    1a5a:	5d                   	pop    %rbp
    1a5b:	41 5c                	pop    %r12
    1a5d:	41 5d                	pop    %r13
    1a5f:	41 5e                	pop    %r14
    1a61:	c3                   	retq   
    1a62:	48 c7 c0 ff ff ff ff 	mov    $0xffffffffffffffff,%rax
    1a69:	eb ee                	jmp    1a59 <writen+0x4e>

0000000000001a6b <send_msg>:
    1a6b:	41 57                	push   %r15
    1a6d:	41 56                	push   %r14
    1a6f:	41 55                	push   %r13
    1a71:	41 54                	push   %r12
    1a73:	55                   	push   %rbp
    1a74:	53                   	push   %rbx
    1a75:	48 81 ec 68 24 00 00 	sub    $0x2468,%rsp
    1a7c:	41 89 fc             	mov    %edi,%r12d
    1a7f:	ba 00 00 00 00       	mov    $0x0,%edx
    1a84:	be 01 00 00 00       	mov    $0x1,%esi
    1a89:	bf 02 00 00 00       	mov    $0x2,%edi
    1a8e:	e8 7d f6 ff ff       	callq  1110 <socket@plt>
    1a93:	41 89 c7             	mov    %eax,%r15d
    1a96:	85 c0                	test   %eax,%eax
    1a98:	0f 88 2a 02 00 00    	js     1cc8 <send_msg+0x25d>
    1a9e:	48 c7 84 24 50 24 00 	movq   $0x0,0x2450(%rsp)
    1aa5:	00 00 00 00 00 
    1aaa:	48 c7 84 24 58 24 00 	movq   $0x0,0x2458(%rsp)
    1ab1:	00 00 00 00 00 
    1ab6:	66 c7 84 24 50 24 00 	movw   $0x2,0x2450(%rsp)
    1abd:	00 02 00 
    1ac0:	66 c7 84 24 52 24 00 	movw   $0x7ac8,0x2452(%rsp)
    1ac7:	00 c8 7a 
    1aca:	48 8d 94 24 54 24 00 	lea    0x2454(%rsp),%rdx
    1ad1:	00 
    1ad2:	48 8d 35 6a 0b 00 00 	lea    0xb6a(%rip),%rsi        # 2643 <array.3089+0x193>
    1ad9:	bf 02 00 00 00       	mov    $0x2,%edi
    1ade:	b8 00 00 00 00       	mov    $0x0,%eax
    1ae3:	e8 58 f5 ff ff       	callq  1040 <inet_pton@plt>
    1ae8:	85 c0                	test   %eax,%eax
    1aea:	0f 88 09 02 00 00    	js     1cf9 <send_msg+0x28e>
    1af0:	48 8d b4 24 50 24 00 	lea    0x2450(%rsp),%rsi
    1af7:	00 
    1af8:	ba 10 00 00 00       	mov    $0x10,%edx
    1afd:	44 89 ff             	mov    %r15d,%edi
    1b00:	e8 cb f5 ff ff       	callq  10d0 <connect@plt>
    1b05:	85 c0                	test   %eax,%eax
    1b07:	0f 88 22 02 00 00    	js     1d2f <send_msg+0x2c4>
    1b0d:	48 8d 6c 24 50       	lea    0x50(%rsp),%rbp
    1b12:	48 b8 53 75 62 6a 65 	movabs $0x3a7463656a627553,%rax
    1b19:	63 74 3a 
    1b1c:	48 89 44 24 50       	mov    %rax,0x50(%rsp)
    1b21:	48 b8 20 42 6f 6d 62 	movabs $0x6f6e20626d6f4220,%rax
    1b28:	20 6e 6f 
    1b2b:	48 89 44 24 58       	mov    %rax,0x58(%rsp)
    1b30:	48 b8 74 69 66 69 63 	movabs $0x6974616369666974,%rax
    1b37:	61 74 69 
    1b3a:	48 89 44 24 60       	mov    %rax,0x60(%rsp)
    1b3f:	c7 44 24 68 6f 6e 0a 	movl   $0xa6e6f,0x68(%rsp)
    1b46:	00 
    1b47:	48 8d 9c 24 50 04 00 	lea    0x450(%rsp),%rbx
    1b4e:	00 
    1b4f:	48 89 ee             	mov    %rbp,%rsi
    1b52:	48 89 df             	mov    %rbx,%rdi
    1b55:	e8 46 f5 ff ff       	callq  10a0 <strcat@plt>
    1b5a:	66 c7 44 24 50 0a 00 	movw   $0xa,0x50(%rsp)
    1b61:	48 89 ee             	mov    %rbp,%rsi
    1b64:	48 89 df             	mov    %rbx,%rdi
    1b67:	e8 34 f5 ff ff       	callq  10a0 <strcat@plt>
    1b6c:	bf 00 00 00 00       	mov    $0x0,%edi
    1b71:	e8 0a f5 ff ff       	callq  1080 <cuserid@plt>
    1b76:	48 85 c0             	test   %rax,%rax
    1b79:	0f 84 e6 01 00 00    	je     1d65 <send_msg+0x2fa>
    1b7f:	48 89 e7             	mov    %rsp,%rdi
    1b82:	48 89 c6             	mov    %rax,%rsi
    1b85:	e8 b6 f3 ff ff       	callq  f40 <strcpy@plt>
    1b8a:	45 85 e4             	test   %r12d,%r12d
    1b8d:	48 8d 05 c5 0a 00 00 	lea    0xac5(%rip),%rax        # 2659 <array.3089+0x1a9>
    1b94:	4c 8d 0d b6 0a 00 00 	lea    0xab6(%rip),%r9        # 2651 <array.3089+0x1a1>
    1b9b:	4c 0f 44 c8          	cmove  %rax,%r9
    1b9f:	48 8d 5c 24 50       	lea    0x50(%rsp),%rbx
    1ba4:	48 83 ec 08          	sub    $0x8,%rsp
    1ba8:	8b 05 4e 2c 20 00    	mov    0x202c4e(%rip),%eax        # 2047fc <num_input_strings>
    1bae:	50                   	push   %rax
    1baf:	4c 8d 44 24 10       	lea    0x10(%rsp),%r8
    1bb4:	8b 0d a6 2a 20 00    	mov    0x202aa6(%rip),%ecx        # 204660 <bomb_id>
    1bba:	48 8d 15 9f 26 20 00 	lea    0x20269f(%rip),%rdx        # 204260 <lab_id>
    1bc1:	48 8d 35 b5 0a 00 00 	lea    0xab5(%rip),%rsi        # 267d <array.3089+0x1cd>
    1bc8:	48 89 df             	mov    %rbx,%rdi
    1bcb:	b8 00 00 00 00       	mov    $0x0,%eax
    1bd0:	e8 db f4 ff ff       	callq  10b0 <sprintf@plt>
    1bd5:	48 8d bc 24 60 04 00 	lea    0x460(%rsp),%rdi
    1bdc:	00 
    1bdd:	48 89 de             	mov    %rbx,%rsi
    1be0:	e8 bb f4 ff ff       	callq  10a0 <strcat@plt>
    1be5:	48 83 c4 10          	add    $0x10,%rsp
    1be9:	83 3d 0c 2c 20 00 00 	cmpl   $0x0,0x202c0c(%rip)        # 2047fc <num_input_strings>
    1bf0:	7e 70                	jle    1c62 <send_msg+0x1f7>
    1bf2:	bb 00 00 00 00       	mov    $0x0,%ebx
    1bf7:	4c 8d 35 22 2c 20 00 	lea    0x202c22(%rip),%r14        # 204820 <input_strings>
    1bfe:	49 89 e5             	mov    %rsp,%r13
    1c01:	48 8d 6c 24 50       	lea    0x50(%rsp),%rbp
    1c06:	4c 8d a4 24 50 04 00 	lea    0x450(%rsp),%r12
    1c0d:	00 
    1c0e:	48 63 c3             	movslq %ebx,%rax
    1c11:	48 8d 04 80          	lea    (%rax,%rax,4),%rax
    1c15:	48 c1 e0 04          	shl    $0x4,%rax
    1c19:	4c 01 f0             	add    %r14,%rax
    1c1c:	83 c3 01             	add    $0x1,%ebx
    1c1f:	48 83 ec 08          	sub    $0x8,%rsp
    1c23:	50                   	push   %rax
    1c24:	41 89 d9             	mov    %ebx,%r9d
    1c27:	4d 89 e8             	mov    %r13,%r8
    1c2a:	8b 0d 30 2a 20 00    	mov    0x202a30(%rip),%ecx        # 204660 <bomb_id>
    1c30:	48 8d 15 29 26 20 00 	lea    0x202629(%rip),%rdx        # 204260 <lab_id>
    1c37:	48 8d 35 5b 0a 00 00 	lea    0xa5b(%rip),%rsi        # 2699 <array.3089+0x1e9>
    1c3e:	48 89 ef             	mov    %rbp,%rdi
    1c41:	b8 00 00 00 00       	mov    $0x0,%eax
    1c46:	e8 65 f4 ff ff       	callq  10b0 <sprintf@plt>
    1c4b:	48 89 ee             	mov    %rbp,%rsi
    1c4e:	4c 89 e7             	mov    %r12,%rdi
    1c51:	e8 4a f4 ff ff       	callq  10a0 <strcat@plt>
    1c56:	48 83 c4 10          	add    $0x10,%rsp
    1c5a:	39 1d 9c 2b 20 00    	cmp    %ebx,0x202b9c(%rip)        # 2047fc <num_input_strings>
    1c60:	7f ac                	jg     1c0e <send_msg+0x1a3>
    1c62:	48 8d ac 24 50 04 00 	lea    0x450(%rsp),%rbp
    1c69:	00 
    1c6a:	49 c7 c4 ff ff ff ff 	mov    $0xffffffffffffffff,%r12
    1c71:	bb 00 00 00 00       	mov    $0x0,%ebx
    1c76:	4c 89 e1             	mov    %r12,%rcx
    1c79:	48 89 ef             	mov    %rbp,%rdi
    1c7c:	89 d8                	mov    %ebx,%eax
    1c7e:	f2 ae                	repnz scas %es:(%rdi),%al
    1c80:	48 f7 d1             	not    %rcx
    1c83:	4a 8d 14 21          	lea    (%rcx,%r12,1),%rdx
    1c87:	48 89 ee             	mov    %rbp,%rsi
    1c8a:	44 89 ff             	mov    %r15d,%edi
    1c8d:	e8 79 fd ff ff       	callq  1a0b <writen>
    1c92:	48 89 c2             	mov    %rax,%rdx
    1c95:	4c 89 e1             	mov    %r12,%rcx
    1c98:	48 89 ef             	mov    %rbp,%rdi
    1c9b:	89 d8                	mov    %ebx,%eax
    1c9d:	f2 ae                	repnz scas %es:(%rdi),%al
    1c9f:	48 f7 d1             	not    %rcx
    1ca2:	4c 01 e1             	add    %r12,%rcx
    1ca5:	48 39 ca             	cmp    %rcx,%rdx
    1ca8:	0f 82 cf 00 00 00    	jb     1d7d <send_msg+0x312>
    1cae:	44 89 ff             	mov    %r15d,%edi
    1cb1:	e8 0a f3 ff ff       	callq  fc0 <close@plt>
    1cb6:	48 81 c4 68 24 00 00 	add    $0x2468,%rsp
    1cbd:	5b                   	pop    %rbx
    1cbe:	5d                   	pop    %rbp
    1cbf:	41 5c                	pop    %r12
    1cc1:	41 5d                	pop    %r13
    1cc3:	41 5e                	pop    %r14
    1cc5:	41 5f                	pop    %r15
    1cc7:	c3                   	retq   
    1cc8:	48 8d 15 93 09 00 00 	lea    0x993(%rip),%rdx        # 2662 <array.3089+0x1b2>
    1ccf:	48 8d 35 17 06 00 00 	lea    0x617(%rip),%rsi        # 22ed <_IO_stdin_used+0x1d>
    1cd6:	48 8b 3d 03 2b 20 00 	mov    0x202b03(%rip),%rdi        # 2047e0 <stdout@@GLIBC_2.2.5>
    1cdd:	b8 00 00 00 00       	mov    $0x0,%eax
    1ce2:	e8 39 f3 ff ff       	callq  1020 <fprintf@plt>
    1ce7:	44 89 ff             	mov    %r15d,%edi
    1cea:	e8 d1 f2 ff ff       	callq  fc0 <close@plt>
    1cef:	bf 01 00 00 00       	mov    $0x1,%edi
    1cf4:	e8 c7 f3 ff ff       	callq  10c0 <exit@plt>
    1cf9:	48 8d 15 d6 09 00 00 	lea    0x9d6(%rip),%rdx        # 26d6 <array.3089+0x226>
    1d00:	48 8d 35 e6 05 00 00 	lea    0x5e6(%rip),%rsi        # 22ed <_IO_stdin_used+0x1d>
    1d07:	48 8b 3d d2 2a 20 00 	mov    0x202ad2(%rip),%rdi        # 2047e0 <stdout@@GLIBC_2.2.5>
    1d0e:	b8 00 00 00 00       	mov    $0x0,%eax
    1d13:	e8 08 f3 ff ff       	callq  1020 <fprintf@plt>
    1d18:	45 85 ff             	test   %r15d,%r15d
    1d1b:	74 08                	je     1d25 <send_msg+0x2ba>
    1d1d:	44 89 ff             	mov    %r15d,%edi
    1d20:	e8 9b f2 ff ff       	callq  fc0 <close@plt>
    1d25:	bf 01 00 00 00       	mov    $0x1,%edi
    1d2a:	e8 91 f3 ff ff       	callq  10c0 <exit@plt>
    1d2f:	48 8d 15 39 09 00 00 	lea    0x939(%rip),%rdx        # 266f <array.3089+0x1bf>
    1d36:	48 8d 35 b0 05 00 00 	lea    0x5b0(%rip),%rsi        # 22ed <_IO_stdin_used+0x1d>
    1d3d:	48 8b 3d 9c 2a 20 00 	mov    0x202a9c(%rip),%rdi        # 2047e0 <stdout@@GLIBC_2.2.5>
    1d44:	b8 00 00 00 00       	mov    $0x0,%eax
    1d49:	e8 d2 f2 ff ff       	callq  1020 <fprintf@plt>
    1d4e:	45 85 ff             	test   %r15d,%r15d
    1d51:	74 08                	je     1d5b <send_msg+0x2f0>
    1d53:	44 89 ff             	mov    %r15d,%edi
    1d56:	e8 65 f2 ff ff       	callq  fc0 <close@plt>
    1d5b:	bf 01 00 00 00       	mov    $0x1,%edi
    1d60:	e8 5b f3 ff ff       	callq  10c0 <exit@plt>
    1d65:	c7 04 24 6e 6f 62 6f 	movl   $0x6f626f6e,(%rsp)
    1d6c:	66 c7 44 24 04 64 79 	movw   $0x7964,0x4(%rsp)
    1d73:	c6 44 24 06 00       	movb   $0x0,0x6(%rsp)
    1d78:	e9 0d fe ff ff       	jmpq   1b8a <send_msg+0x11f>
    1d7d:	48 8d 15 31 09 00 00 	lea    0x931(%rip),%rdx        # 26b5 <array.3089+0x205>
    1d84:	48 8d 35 62 05 00 00 	lea    0x562(%rip),%rsi        # 22ed <_IO_stdin_used+0x1d>
    1d8b:	48 8b 3d 4e 2a 20 00 	mov    0x202a4e(%rip),%rdi        # 2047e0 <stdout@@GLIBC_2.2.5>
    1d92:	e8 89 f2 ff ff       	callq  1020 <fprintf@plt>
    1d97:	45 85 ff             	test   %r15d,%r15d
    1d9a:	74 08                	je     1da4 <send_msg+0x339>
    1d9c:	44 89 ff             	mov    %r15d,%edi
    1d9f:	e8 1c f2 ff ff       	callq  fc0 <close@plt>
    1da4:	bf 01 00 00 00       	mov    $0x1,%edi
    1da9:	e8 12 f3 ff ff       	callq  10c0 <exit@plt>

0000000000001dae <send_msg_2>:
    1dae:	41 57                	push   %r15
    1db0:	41 56                	push   %r14
    1db2:	41 55                	push   %r13
    1db4:	41 54                	push   %r12
    1db6:	55                   	push   %rbp
    1db7:	53                   	push   %rbx
    1db8:	48 83 ec 68          	sub    $0x68,%rsp
    1dbc:	89 fb                	mov    %edi,%ebx
    1dbe:	bf 00 00 00 00       	mov    $0x0,%edi
    1dc3:	e8 e8 f1 ff ff       	callq  fb0 <dup@plt>
    1dc8:	89 44 24 0c          	mov    %eax,0xc(%rsp)
    1dcc:	83 f8 ff             	cmp    $0xffffffff,%eax
    1dcf:	0f 84 a6 01 00 00    	je     1f7b <send_msg_2+0x1cd>
    1dd5:	bf 00 00 00 00       	mov    $0x0,%edi
    1dda:	e8 e1 f1 ff ff       	callq  fc0 <close@plt>
    1ddf:	83 f8 ff             	cmp    $0xffffffff,%eax
    1de2:	0f 84 a9 01 00 00    	je     1f91 <send_msg_2+0x1e3>
    1de8:	e8 03 f2 ff ff       	callq  ff0 <tmpfile@plt>
    1ded:	48 89 c5             	mov    %rax,%rbp
    1df0:	48 85 c0             	test   %rax,%rax
    1df3:	0f 84 ae 01 00 00    	je     1fa7 <send_msg_2+0x1f9>
    1df9:	48 89 c1             	mov    %rax,%rcx
    1dfc:	ba 1b 00 00 00       	mov    $0x1b,%edx
    1e01:	be 01 00 00 00       	mov    $0x1,%esi
    1e06:	48 8d 3d f7 08 00 00 	lea    0x8f7(%rip),%rdi        # 2704 <array.3089+0x254>
    1e0d:	e8 ce f2 ff ff       	callq  10e0 <fwrite@plt>
    1e12:	48 89 ee             	mov    %rbp,%rsi
    1e15:	bf 0a 00 00 00       	mov    $0xa,%edi
    1e1a:	e8 b1 f1 ff ff       	callq  fd0 <fputc@plt>
    1e1f:	bf 00 00 00 00       	mov    $0x0,%edi
    1e24:	e8 57 f2 ff ff       	callq  1080 <cuserid@plt>
    1e29:	48 85 c0             	test   %rax,%rax
    1e2c:	0f 84 8b 01 00 00    	je     1fbd <send_msg_2+0x20f>
    1e32:	48 8d 7c 24 10       	lea    0x10(%rsp),%rdi
    1e37:	48 89 c6             	mov    %rax,%rsi
    1e3a:	e8 01 f1 ff ff       	callq  f40 <strcpy@plt>
    1e3f:	85 db                	test   %ebx,%ebx
    1e41:	48 8d 05 11 08 00 00 	lea    0x811(%rip),%rax        # 2659 <array.3089+0x1a9>
    1e48:	4c 8d 0d 02 08 00 00 	lea    0x802(%rip),%r9        # 2651 <array.3089+0x1a1>
    1e4f:	4c 0f 44 c8          	cmove  %rax,%r9
    1e53:	48 83 ec 08          	sub    $0x8,%rsp
    1e57:	8b 05 9f 29 20 00    	mov    0x20299f(%rip),%eax        # 2047fc <num_input_strings>
    1e5d:	50                   	push   %rax
    1e5e:	4c 8d 44 24 20       	lea    0x20(%rsp),%r8
    1e63:	8b 0d f7 27 20 00    	mov    0x2027f7(%rip),%ecx        # 204660 <bomb_id>
    1e69:	48 8d 15 f0 23 20 00 	lea    0x2023f0(%rip),%rdx        # 204260 <lab_id>
    1e70:	48 8d 35 06 08 00 00 	lea    0x806(%rip),%rsi        # 267d <array.3089+0x1cd>
    1e77:	48 89 ef             	mov    %rbp,%rdi
    1e7a:	b8 00 00 00 00       	mov    $0x0,%eax
    1e7f:	e8 9c f1 ff ff       	callq  1020 <fprintf@plt>
    1e84:	48 83 c4 10          	add    $0x10,%rsp
    1e88:	83 3d 6d 29 20 00 00 	cmpl   $0x0,0x20296d(%rip)        # 2047fc <num_input_strings>
    1e8f:	7e 60                	jle    1ef1 <send_msg_2+0x143>
    1e91:	bb 00 00 00 00       	mov    $0x0,%ebx
    1e96:	4c 8d 3d 83 29 20 00 	lea    0x202983(%rip),%r15        # 204820 <input_strings>
    1e9d:	4c 8d 74 24 10       	lea    0x10(%rsp),%r14
    1ea2:	4c 8d 2d b7 23 20 00 	lea    0x2023b7(%rip),%r13        # 204260 <lab_id>
    1ea9:	4c 8d 25 e9 07 00 00 	lea    0x7e9(%rip),%r12        # 2699 <array.3089+0x1e9>
    1eb0:	48 63 c3             	movslq %ebx,%rax
    1eb3:	48 8d 04 80          	lea    (%rax,%rax,4),%rax
    1eb7:	48 c1 e0 04          	shl    $0x4,%rax
    1ebb:	4c 01 f8             	add    %r15,%rax
    1ebe:	83 c3 01             	add    $0x1,%ebx
    1ec1:	48 83 ec 08          	sub    $0x8,%rsp
    1ec5:	50                   	push   %rax
    1ec6:	41 89 d9             	mov    %ebx,%r9d
    1ec9:	4d 89 f0             	mov    %r14,%r8
    1ecc:	8b 0d 8e 27 20 00    	mov    0x20278e(%rip),%ecx        # 204660 <bomb_id>
    1ed2:	4c 89 ea             	mov    %r13,%rdx
    1ed5:	4c 89 e6             	mov    %r12,%rsi
    1ed8:	48 89 ef             	mov    %rbp,%rdi
    1edb:	b8 00 00 00 00       	mov    $0x0,%eax
    1ee0:	e8 3b f1 ff ff       	callq  1020 <fprintf@plt>
    1ee5:	48 83 c4 10          	add    $0x10,%rsp
    1ee9:	39 1d 0d 29 20 00    	cmp    %ebx,0x20290d(%rip)        # 2047fc <num_input_strings>
    1eef:	7f bf                	jg     1eb0 <send_msg_2+0x102>
    1ef1:	48 89 ef             	mov    %rbp,%rdi
    1ef4:	e8 a7 f0 ff ff       	callq  fa0 <rewind@plt>
    1ef9:	4c 8d 05 20 08 00 00 	lea    0x820(%rip),%r8        # 2720 <array.3089+0x270>
    1f00:	48 8d 0d 23 08 00 00 	lea    0x823(%rip),%rcx        # 272a <array.3089+0x27a>
    1f07:	48 8d 15 24 08 00 00 	lea    0x824(%rip),%rdx        # 2732 <array.3089+0x282>
    1f0e:	48 8d 35 34 08 00 00 	lea    0x834(%rip),%rsi        # 2749 <array.3089+0x299>
    1f15:	48 8d 3d 44 2f 20 00 	lea    0x202f44(%rip),%rdi        # 204e60 <scratch>
    1f1c:	b8 00 00 00 00       	mov    $0x0,%eax
    1f21:	e8 8a f1 ff ff       	callq  10b0 <sprintf@plt>
    1f26:	48 8d 3d 33 2f 20 00 	lea    0x202f33(%rip),%rdi        # 204e60 <scratch>
    1f2d:	e8 4e f0 ff ff       	callq  f80 <system@plt>
    1f32:	85 c0                	test   %eax,%eax
    1f34:	0f 85 9c 00 00 00    	jne    1fd6 <send_msg_2+0x228>
    1f3a:	48 89 ef             	mov    %rbp,%rdi
    1f3d:	e8 2e f0 ff ff       	callq  f70 <fclose@plt>
    1f42:	85 c0                	test   %eax,%eax
    1f44:	0f 85 a2 00 00 00    	jne    1fec <send_msg_2+0x23e>
    1f4a:	8b 7c 24 0c          	mov    0xc(%rsp),%edi
    1f4e:	e8 5d f0 ff ff       	callq  fb0 <dup@plt>
    1f53:	85 c0                	test   %eax,%eax
    1f55:	0f 85 a7 00 00 00    	jne    2002 <send_msg_2+0x254>
    1f5b:	8b 7c 24 0c          	mov    0xc(%rsp),%edi
    1f5f:	e8 5c f0 ff ff       	callq  fc0 <close@plt>
    1f64:	85 c0                	test   %eax,%eax
    1f66:	0f 85 ac 00 00 00    	jne    2018 <send_msg_2+0x26a>
    1f6c:	48 83 c4 68          	add    $0x68,%rsp
    1f70:	5b                   	pop    %rbx
    1f71:	5d                   	pop    %rbp
    1f72:	41 5c                	pop    %r12
    1f74:	41 5d                	pop    %r13
    1f76:	41 5e                	pop    %r14
    1f78:	41 5f                	pop    %r15
    1f7a:	c3                   	retq   
    1f7b:	48 8d 3d 46 07 00 00 	lea    0x746(%rip),%rdi        # 26c8 <array.3089+0x218>
    1f82:	e8 c9 ef ff ff       	callq  f50 <puts@plt>
    1f87:	bf 08 00 00 00       	mov    $0x8,%edi
    1f8c:	e8 2f f1 ff ff       	callq  10c0 <exit@plt>
    1f91:	48 8d 3d 44 07 00 00 	lea    0x744(%rip),%rdi        # 26dc <array.3089+0x22c>
    1f98:	e8 b3 ef ff ff       	callq  f50 <puts@plt>
    1f9d:	bf 08 00 00 00       	mov    $0x8,%edi
    1fa2:	e8 19 f1 ff ff       	callq  10c0 <exit@plt>
    1fa7:	48 8d 3d 41 07 00 00 	lea    0x741(%rip),%rdi        # 26ef <array.3089+0x23f>
    1fae:	e8 9d ef ff ff       	callq  f50 <puts@plt>
    1fb3:	bf 08 00 00 00       	mov    $0x8,%edi
    1fb8:	e8 03 f1 ff ff       	callq  10c0 <exit@plt>
    1fbd:	c7 44 24 10 6e 6f 62 	movl   $0x6f626f6e,0x10(%rsp)
    1fc4:	6f 
    1fc5:	66 c7 44 24 14 64 79 	movw   $0x7964,0x14(%rsp)
    1fcc:	c6 44 24 16 00       	movb   $0x0,0x16(%rsp)
    1fd1:	e9 69 fe ff ff       	jmpq   1e3f <send_msg_2+0x91>
    1fd6:	48 8d 3d 75 07 00 00 	lea    0x775(%rip),%rdi        # 2752 <array.3089+0x2a2>
    1fdd:	e8 6e ef ff ff       	callq  f50 <puts@plt>
    1fe2:	bf 08 00 00 00       	mov    $0x8,%edi
    1fe7:	e8 d4 f0 ff ff       	callq  10c0 <exit@plt>
    1fec:	48 8d 3d 79 07 00 00 	lea    0x779(%rip),%rdi        # 276c <array.3089+0x2bc>
    1ff3:	e8 58 ef ff ff       	callq  f50 <puts@plt>
    1ff8:	bf 08 00 00 00       	mov    $0x8,%edi
    1ffd:	e8 be f0 ff ff       	callq  10c0 <exit@plt>
    2002:	48 8d 3d 7c 07 00 00 	lea    0x77c(%rip),%rdi        # 2785 <array.3089+0x2d5>
    2009:	e8 42 ef ff ff       	callq  f50 <puts@plt>
    200e:	bf 08 00 00 00       	mov    $0x8,%edi
    2013:	e8 a8 f0 ff ff       	callq  10c0 <exit@plt>
    2018:	48 8d 3d 81 07 00 00 	lea    0x781(%rip),%rdi        # 27a0 <array.3089+0x2f0>
    201f:	e8 2c ef ff ff       	callq  f50 <puts@plt>
    2024:	bf 08 00 00 00       	mov    $0x8,%edi
    2029:	e8 92 f0 ff ff       	callq  10c0 <exit@plt>

000000000000202e <explode_bomb>:
    202e:	48 83 ec 08          	sub    $0x8,%rsp
    2032:	48 8d 3d 7e 07 00 00 	lea    0x77e(%rip),%rdi        # 27b7 <array.3089+0x307>
    2039:	e8 12 ef ff ff       	callq  f50 <puts@plt>
    203e:	48 8d 3d 7b 07 00 00 	lea    0x77b(%rip),%rdi        # 27c0 <array.3089+0x310>
    2045:	e8 06 ef ff ff       	callq  f50 <puts@plt>
    204a:	bf 00 00 00 00       	mov    $0x0,%edi
    204f:	e8 17 fa ff ff       	callq  1a6b <send_msg>
    2054:	48 8d 3d 9d 04 00 00 	lea    0x49d(%rip),%rdi        # 24f8 <array.3089+0x48>
    205b:	e8 f0 ee ff ff       	callq  f50 <puts@plt>
    2060:	bf 08 00 00 00       	mov    $0x8,%edi
    2065:	e8 56 f0 ff ff       	callq  10c0 <exit@plt>

000000000000206a <read_six_numbers>:
    206a:	48 83 ec 08          	sub    $0x8,%rsp
    206e:	48 89 f2             	mov    %rsi,%rdx
    2071:	48 8d 4e 04          	lea    0x4(%rsi),%rcx
    2075:	48 8d 46 14          	lea    0x14(%rsi),%rax
    2079:	50                   	push   %rax
    207a:	48 8d 46 10          	lea    0x10(%rsi),%rax
    207e:	50                   	push   %rax
    207f:	4c 8d 4e 0c          	lea    0xc(%rsi),%r9
    2083:	4c 8d 46 08          	lea    0x8(%rsi),%r8
    2087:	48 8d 35 49 07 00 00 	lea    0x749(%rip),%rsi        # 27d7 <array.3089+0x327>
    208e:	b8 00 00 00 00       	mov    $0x0,%eax
    2093:	e8 c8 ef ff ff       	callq  1060 <__isoc99_sscanf@plt>
    2098:	48 83 c4 10          	add    $0x10,%rsp
    209c:	83 f8 05             	cmp    $0x5,%eax
    209f:	7e 05                	jle    20a6 <read_six_numbers+0x3c>
    20a1:	48 83 c4 08          	add    $0x8,%rsp
    20a5:	c3                   	retq   
    20a6:	e8 83 ff ff ff       	callq  202e <explode_bomb>

00000000000020ab <read_line>:
    20ab:	48 83 ec 08          	sub    $0x8,%rsp
    20af:	b8 00 00 00 00       	mov    $0x0,%eax
    20b4:	e8 04 f9 ff ff       	callq  19bd <skip>
    20b9:	48 85 c0             	test   %rax,%rax
    20bc:	74 6f                	je     212d <read_line+0x82>
    20be:	8b 35 38 27 20 00    	mov    0x202738(%rip),%esi        # 2047fc <num_input_strings>
    20c4:	48 63 c6             	movslq %esi,%rax
    20c7:	48 8d 14 80          	lea    (%rax,%rax,4),%rdx
    20cb:	48 c1 e2 04          	shl    $0x4,%rdx
    20cf:	48 8d 05 4a 27 20 00 	lea    0x20274a(%rip),%rax        # 204820 <input_strings>
    20d6:	48 01 c2             	add    %rax,%rdx
    20d9:	b8 00 00 00 00       	mov    $0x0,%eax
    20de:	48 c7 c1 ff ff ff ff 	mov    $0xffffffffffffffff,%rcx
    20e5:	48 89 d7             	mov    %rdx,%rdi
    20e8:	f2 ae                	repnz scas %es:(%rdi),%al
    20ea:	48 f7 d1             	not    %rcx
    20ed:	48 83 e9 01          	sub    $0x1,%rcx
    20f1:	83 f9 4f             	cmp    $0x4f,%ecx
    20f4:	0f 84 a1 00 00 00    	je     219b <read_line+0xf0>
    20fa:	83 e9 01             	sub    $0x1,%ecx
    20fd:	48 63 c9             	movslq %ecx,%rcx
    2100:	48 63 c6             	movslq %esi,%rax
    2103:	48 8d 04 80          	lea    (%rax,%rax,4),%rax
    2107:	48 c1 e0 04          	shl    $0x4,%rax
    210b:	48 89 c7             	mov    %rax,%rdi
    210e:	48 8d 05 0b 27 20 00 	lea    0x20270b(%rip),%rax        # 204820 <input_strings>
    2115:	48 01 f8             	add    %rdi,%rax
    2118:	c6 04 08 00          	movb   $0x0,(%rax,%rcx,1)
    211c:	83 c6 01             	add    $0x1,%esi
    211f:	89 35 d7 26 20 00    	mov    %esi,0x2026d7(%rip)        # 2047fc <num_input_strings>
    2125:	48 89 d0             	mov    %rdx,%rax
    2128:	48 83 c4 08          	add    $0x8,%rsp
    212c:	c3                   	retq   
    212d:	48 8b 05 bc 26 20 00 	mov    0x2026bc(%rip),%rax        # 2047f0 <stdin@@GLIBC_2.2.5>
    2134:	48 39 05 c5 26 20 00 	cmp    %rax,0x2026c5(%rip)        # 204800 <infile>
    213b:	74 43                	je     2180 <read_line+0xd5>
    213d:	48 8d 3d c3 06 00 00 	lea    0x6c3(%rip),%rdi        # 2807 <array.3089+0x357>
    2144:	e8 d7 ed ff ff       	callq  f20 <getenv@plt>
    2149:	48 85 c0             	test   %rax,%rax
    214c:	75 43                	jne    2191 <read_line+0xe6>
    214e:	48 8b 05 9b 26 20 00 	mov    0x20269b(%rip),%rax        # 2047f0 <stdin@@GLIBC_2.2.5>
    2155:	48 89 05 a4 26 20 00 	mov    %rax,0x2026a4(%rip)        # 204800 <infile>
    215c:	b8 00 00 00 00       	mov    $0x0,%eax
    2161:	e8 57 f8 ff ff       	callq  19bd <skip>
    2166:	48 85 c0             	test   %rax,%rax
    2169:	0f 85 4f ff ff ff    	jne    20be <read_line+0x13>
    216f:	48 8d 3d 73 06 00 00 	lea    0x673(%rip),%rdi        # 27e9 <array.3089+0x339>
    2176:	e8 d5 ed ff ff       	callq  f50 <puts@plt>
    217b:	e8 ae fe ff ff       	callq  202e <explode_bomb>
    2180:	48 8d 3d 62 06 00 00 	lea    0x662(%rip),%rdi        # 27e9 <array.3089+0x339>
    2187:	e8 c4 ed ff ff       	callq  f50 <puts@plt>
    218c:	e8 9d fe ff ff       	callq  202e <explode_bomb>
    2191:	bf 00 00 00 00       	mov    $0x0,%edi
    2196:	e8 25 ef ff ff       	callq  10c0 <exit@plt>
    219b:	48 8d 3d 70 06 00 00 	lea    0x670(%rip),%rdi        # 2812 <array.3089+0x362>
    21a2:	e8 a9 ed ff ff       	callq  f50 <puts@plt>
    21a7:	e8 82 fe ff ff       	callq  202e <explode_bomb>

00000000000021ac <phase_defused>:
    21ac:	48 83 ec 68          	sub    $0x68,%rsp
    21b0:	bf 01 00 00 00       	mov    $0x1,%edi
    21b5:	e8 b1 f8 ff ff       	callq  1a6b <send_msg>
    21ba:	83 3d 3b 26 20 00 06 	cmpl   $0x6,0x20263b(%rip)        # 2047fc <num_input_strings>
    21c1:	74 05                	je     21c8 <phase_defused+0x1c>
    21c3:	48 83 c4 68          	add    $0x68,%rsp
    21c7:	c3                   	retq   
    21c8:	48 8d 4c 24 10       	lea    0x10(%rsp),%rcx
    21cd:	48 8d 54 24 0c       	lea    0xc(%rsp),%rdx
    21d2:	48 8d 35 54 06 00 00 	lea    0x654(%rip),%rsi        # 282d <array.3089+0x37d>
    21d9:	48 8d 3d 30 27 20 00 	lea    0x202730(%rip),%rdi        # 204910 <input_strings+0xf0>
    21e0:	b8 00 00 00 00       	mov    $0x0,%eax
    21e5:	e8 76 ee ff ff       	callq  1060 <__isoc99_sscanf@plt>
    21ea:	83 f8 02             	cmp    $0x2,%eax
    21ed:	74 1a                	je     2209 <phase_defused+0x5d>
    21ef:	48 8d 3d 8a 03 00 00 	lea    0x38a(%rip),%rdi        # 2580 <array.3089+0xd0>
    21f6:	e8 55 ed ff ff       	callq  f50 <puts@plt>
    21fb:	48 8d 3d ae 03 00 00 	lea    0x3ae(%rip),%rdi        # 25b0 <array.3089+0x100>
    2202:	e8 49 ed ff ff       	callq  f50 <puts@plt>
    2207:	eb ba                	jmp    21c3 <phase_defused+0x17>
    2209:	48 8d 7c 24 10       	lea    0x10(%rsp),%rdi
    220e:	48 8d 35 1e 06 00 00 	lea    0x61e(%rip),%rsi        # 2833 <array.3089+0x383>
    2215:	e8 04 f6 ff ff       	callq  181e <strings_not_equal>
    221a:	85 c0                	test   %eax,%eax
    221c:	75 d1                	jne    21ef <phase_defused+0x43>
    221e:	48 8d 3d fb 02 00 00 	lea    0x2fb(%rip),%rdi        # 2520 <array.3089+0x70>
    2225:	e8 26 ed ff ff       	callq  f50 <puts@plt>
    222a:	48 8d 3d 17 03 00 00 	lea    0x317(%rip),%rdi        # 2548 <array.3089+0x98>
    2231:	e8 1a ed ff ff       	callq  f50 <puts@plt>
    2236:	b8 00 00 00 00       	mov    $0x0,%eax
    223b:	e8 f0 f4 ff ff       	callq  1730 <secret_phase>
    2240:	eb ad                	jmp    21ef <phase_defused+0x43>
    2242:	66 2e 0f 1f 84 00 00 	nopw   %cs:0x0(%rax,%rax,1)
    2249:	00 00 00 
    224c:	0f 1f 40 00          	nopl   0x0(%rax)

0000000000002250 <__libc_csu_init>:
    2250:	41 57                	push   %r15
    2252:	41 56                	push   %r14
    2254:	41 89 ff             	mov    %edi,%r15d
    2257:	41 55                	push   %r13
    2259:	41 54                	push   %r12
    225b:	4c 8d 25 76 1b 20 00 	lea    0x201b76(%rip),%r12        # 203dd8 <__frame_dummy_init_array_entry>
    2262:	55                   	push   %rbp
    2263:	48 8d 2d 76 1b 20 00 	lea    0x201b76(%rip),%rbp        # 203de0 <__init_array_end>
    226a:	53                   	push   %rbx
    226b:	49 89 f6             	mov    %rsi,%r14
    226e:	49 89 d5             	mov    %rdx,%r13
    2271:	4c 29 e5             	sub    %r12,%rbp
    2274:	48 83 ec 08          	sub    $0x8,%rsp
    2278:	48 c1 fd 03          	sar    $0x3,%rbp
    227c:	e8 77 ec ff ff       	callq  ef8 <_init>
    2281:	48 85 ed             	test   %rbp,%rbp
    2284:	74 20                	je     22a6 <__libc_csu_init+0x56>
    2286:	31 db                	xor    %ebx,%ebx
    2288:	0f 1f 84 00 00 00 00 	nopl   0x0(%rax,%rax,1)
    228f:	00 
    2290:	4c 89 ea             	mov    %r13,%rdx
    2293:	4c 89 f6             	mov    %r14,%rsi
    2296:	44 89 ff             	mov    %r15d,%edi
    2299:	41 ff 14 dc          	callq  *(%r12,%rbx,8)
    229d:	48 83 c3 01          	add    $0x1,%rbx
    22a1:	48 39 dd             	cmp    %rbx,%rbp
    22a4:	75 ea                	jne    2290 <__libc_csu_init+0x40>
    22a6:	48 83 c4 08          	add    $0x8,%rsp
    22aa:	5b                   	pop    %rbx
    22ab:	5d                   	pop    %rbp
    22ac:	41 5c                	pop    %r12
    22ae:	41 5d                	pop    %r13
    22b0:	41 5e                	pop    %r14
    22b2:	41 5f                	pop    %r15
    22b4:	c3                   	retq   
    22b5:	90                   	nop
    22b6:	66 2e 0f 1f 84 00 00 	nopw   %cs:0x0(%rax,%rax,1)
    22bd:	00 00 00 

00000000000022c0 <__libc_csu_fini>:
    22c0:	f3 c3                	repz retq 

Disassembly of section .fini:

00000000000022c4 <_fini>:
    22c4:	48 83 ec 08          	sub    $0x8,%rsp
    22c8:	48 83 c4 08          	add    $0x8,%rsp
    22cc:	c3                   	retq   
